; Function Attrs: mustprogress uwtable
define void @_ZNK8QuantLib13LMMCurveState5cloneEv(ptr dead_on_unwind noalias nocapture writable writeonly sret(%"class.std::unique_ptr") align 8 %agg.result, ptr noundef nonnull align 8 dereferenceable(224) %this) unnamed_addr #0 align 2 personality ptr @__gxx_personality_v0 {
entry:
  %call = tail call noalias noundef nonnull dereferenceable(224) ptr @_Znwm(i64 noundef 224) #21
  invoke void @_ZN8QuantLib13LMMCurveStateC2ERKS0_(ptr noundef nonnull align 8 dereferenceable(224) %call, ptr noundef nonnull align 8 dereferenceable(224) %this)
          to label %invoke.cont unwind label %lpad

invoke.cont:                                      ; preds = %entry
  store ptr %call, ptr %agg.result, align 8, !tbaa !25
  ret void

lpad:                                             ; preds = %entry
  %0 = landingpad { ptr, i32 }
          cleanup
  tail call void @_ZdlPvm(ptr noundef nonnull %call, i64 noundef 224) #22
  resume { ptr, i32 } %0
}